target datalayout = "e-m:e-p270:32:32-p271:32:32-p272:64:64-i64:64-i128:128-f80:128-n8:16:32:64-S128"
target triple = "x86_64-pc-linux-gnu"

%"struct.cv::bioinspired::SegmentationParameters" = type { float, float, float, float, float, float, float, float }
%"class.cv::bioinspired::TransientAreasSegmentationModuleImpl" = type { ptr, %"class.cv::bioinspired::BasicRetinaFilter", %"struct.cv::bioinspired::SegmentationParameters", %"class.std::valarray", %"class.std::valarray", %"class.std::valarray.4", ptr, ptr, i32, %"class.cv::Mat", %"class.cv::Mat" }
%"class.cv::bioinspired::BasicRetinaFilter" = type { %"class.cv::bioinspired::TemplateBuffer", %"class.std::valarray", i32, i32, %"class.std::valarray", %"class.std::valarray", %"class.std::valarray", float, float, float, float, float, float, float, float }
%"class.cv::bioinspired::TemplateBuffer" = type { ptr, %"class.std::valarray", i64, i64, i64, i64, i64 }
%"class.std::valarray" = type { i64, ptr }
%"class.std::valarray.4" = type { i64, ptr }
%"class.cv::Mat" = type { i32, i32, i32, i32, ptr, ptr, ptr, ptr, ptr, ptr, %"struct.cv::MatSize", %"struct.cv::MatStep" }
%"struct.cv::MatSize" = type { ptr }
%"struct.cv::MatStep" = type { ptr, [2 x i64] }

; Function Attrs: inlinehint mustprogress nounwind uwtable
define linkonce_odr hidden noundef i32 @_ZN2cv11bioinspired14TemplateBufferIfE11getNBpixelsEv(ptr noundef nonnull align 8 dereferenceable(64) %0) #7 comdat align 2 {
  %2 = alloca ptr, align 8
  store ptr %0, ptr %2, align 8, !tbaa !120
  %3 = load ptr, ptr %2, align 8
  %4 = getelementptr inbounds nuw %"class.cv::bioinspired::TemplateBuffer", ptr %3, i32 0, i32 5
  %5 = load i64, ptr %4, align 8, !tbaa !122
  %6 = trunc i64 %5 to i32
  ret i32 %6
}

; Function Attrs: inlinehint mustprogress nounwind uwtable
define linkonce_odr hidden noundef nonnull align 1 dereferenceable(1) ptr @_ZNSt8valarrayIbEixEm(ptr noundef nonnull align 8 dereferenceable(16) %0, i64 noundef %1) #7 comdat align 2 {
  %3 = alloca ptr, align 8
  %4 = alloca i64, align 8
  store ptr %0, ptr %3, align 8, !tbaa !42
  store i64 %1, ptr %4, align 8, !tbaa !36
  %5 = load ptr, ptr %3, align 8
  %6 = getelementptr inbounds nuw %"class.std::valarray.4", ptr %5, i32 0, i32 1
  %7 = load ptr, ptr %6, align 8, !tbaa !47
  %8 = load i64, ptr %4, align 8, !tbaa !36
  %9 = getelementptr inbounds nuw i8, ptr %7, i64 %8
  ret ptr %9
}

; Function Attrs: inlinehint mustprogress nounwind uwtable
define linkonce_odr hidden noundef nonnull align 4 dereferenceable(4) ptr @_ZNSt8valarrayIfEixEm(ptr noundef nonnull align 8 dereferenceable(16) %0, i64 noundef %1) #7 comdat align 2 {
  %3 = alloca ptr, align 8
  %4 = alloca i64, align 8
  store ptr %0, ptr %3, align 8, !tbaa !20
  store i64 %1, ptr %4, align 8, !tbaa !36
  %5 = load ptr, ptr %3, align 8
  %6 = getelementptr inbounds nuw %"class.std::valarray", ptr %5, i32 0, i32 1
  %7 = load ptr, ptr %6, align 8, !tbaa !41
  %8 = load i64, ptr %4, align 8, !tbaa !36
  %9 = getelementptr inbounds nuw float, ptr %7, i64 %8
  ret ptr %9
}

; Function Attrs: inlinehint mustprogress uwtable
define linkonce_odr hidden noundef i32 @_ZN2cv11bioinspired17BasicRetinaFilter11getNBpixelsEv(ptr noundef nonnull align 8 dereferenceable(168) %0) #6 comdat align 2 {
  %2 = alloca ptr, align 8
  store ptr %0, ptr %2, align 8, !tbaa !50
  %3 = load ptr, ptr %2, align 8
  %4 = getelementptr inbounds nuw %"class.cv::bioinspired::BasicRetinaFilter", ptr %3, i32 0, i32 0
  %5 = call noundef i32 @_ZN2cv11bioinspired14TemplateBufferIfE11getNBpixelsEv(ptr noundef nonnull align 8 dereferenceable(64) %4)
  ret i32 %5
}

; Function Attrs: mustprogress uwtable
define hidden void @_ZN2cv11bioinspired36TransientAreasSegmentationModuleImpl4_runERKSt8valarrayIfEi(ptr noundef nonnull align 8 dereferenceable(472) %0, ptr noundef nonnull align 8 dereferenceable(16) %1, i32 noundef %2) #4 align 2 {
  %4 = alloca ptr, align 8
  %5 = alloca ptr, align 8
  %6 = alloca i32, align 4
  %7 = alloca ptr, align 8
  %8 = alloca ptr, align 8
  %9 = alloca ptr, align 8
  %10 = alloca ptr, align 8
  %11 = alloca i32, align 4
  %12 = alloca float, align 4
  store ptr %0, ptr %4, align 8, !tbaa !12
  store ptr %1, ptr %5, align 8, !tbaa !20
  store i32 %2, ptr %6, align 4, !tbaa !103
  %13 = load ptr, ptr %4, align 8
  %14 = getelementptr inbounds i8, ptr %13, i64 8
  %15 = load ptr, ptr %5, align 8, !tbaa !20
  %16 = load i32, ptr %6, align 4, !tbaa !103
  %17 = getelementptr inbounds i8, ptr %13, i64 8
  %18 = call noundef i32 @_ZN2cv11bioinspired17BasicRetinaFilter11getNBpixelsEv(ptr noundef nonnull align 8 dereferenceable(168) %17)
  %19 = mul i32 %16, %18
  %20 = zext i32 %19 to i64
  %21 = call noundef nonnull align 4 dereferenceable(4) ptr @_ZNSt8valarrayIfEixEm(ptr noundef nonnull align 8 dereferenceable(16) %15, i64 noundef %20) #3
  %22 = getelementptr inbounds nuw %"class.cv::bioinspired::TransientAreasSegmentationModuleImpl", ptr %13, i32 0, i32 6
  %23 = load ptr, ptr %22, align 8, !tbaa !116
  %24 = call noundef nonnull align 4 dereferenceable(4) ptr @_ZNSt8valarrayIfEixEm(ptr noundef nonnull align 8 dereferenceable(16) %23, i64 noundef 0) #3
  %25 = call noundef float @_ZN2cv11bioinspired17BasicRetinaFilter31_squaringSpatiotemporalLPfilterEPKfPfj(ptr noundef nonnull align 8 dereferenceable(168) %14, ptr noundef %21, ptr noundef %24, i32 noundef 0)
  %26 = getelementptr inbounds i8, ptr %13, i64 8
  %27 = getelementptr inbounds nuw %"class.cv::bioinspired::TransientAreasSegmentationModuleImpl", ptr %13, i32 0, i32 6
  %28 = load ptr, ptr %27, align 8, !tbaa !116
  %29 = call noundef nonnull align 4 dereferenceable(4) ptr @_ZNSt8valarrayIfEixEm(ptr noundef nonnull align 8 dereferenceable(16) %28, i64 noundef 0) #3
  %30 = getelementptr inbounds nuw %"class.cv::bioinspired::TransientAreasSegmentationModuleImpl", ptr %13, i32 0, i32 7
  %31 = load ptr, ptr %30, align 8, !tbaa !117
  %32 = call noundef nonnull align 4 dereferenceable(4) ptr @_ZNSt8valarrayIfEixEm(ptr noundef nonnull align 8 dereferenceable(16) %31, i64 noundef 0) #3
  call void @_ZN2cv11bioinspired17BasicRetinaFilter23_spatiotemporalLPfilterEPKfPfj(ptr noundef nonnull align 8 dereferenceable(168) %26, ptr noundef %29, ptr noundef %32, i32 noundef 1)
  %33 = getelementptr inbounds i8, ptr %13, i64 8
  %34 = getelementptr inbounds nuw %"class.cv::bioinspired::TransientAreasSegmentationModuleImpl", ptr %13, i32 0, i32 6
  %35 = load ptr, ptr %34, align 8, !tbaa !116
  %36 = call noundef nonnull align 4 dereferenceable(4) ptr @_ZNSt8valarrayIfEixEm(ptr noundef nonnull align 8 dereferenceable(16) %35, i64 noundef 0) #3
  %37 = getelementptr inbounds nuw %"class.cv::bioinspired::TransientAreasSegmentationModuleImpl", ptr %13, i32 0, i32 4
  %38 = call noundef nonnull align 4 dereferenceable(4) ptr @_ZNSt8valarrayIfEixEm(ptr noundef nonnull align 8 dereferenceable(16) %37, i64 noundef 0) #3
  call void @_ZN2cv11bioinspired17BasicRetinaFilter23_spatiotemporalLPfilterEPKfPfj(ptr noundef nonnull align 8 dereferenceable(168) %33, ptr noundef %36, ptr noundef %38, i32 noundef 2)
  call void @llvm.lifetime.start.p0(i64 8, ptr %7) #3
  %39 = getelementptr inbounds nuw %"class.cv::bioinspired::TransientAreasSegmentationModuleImpl", ptr %13, i32 0, i32 6
  %40 = load ptr, ptr %39, align 8, !tbaa !116
  %41 = call noundef nonnull align 4 dereferenceable(4) ptr @_ZNSt8valarrayIfEixEm(ptr noundef nonnull align 8 dereferenceable(16) %40, i64 noundef 0) #3
  store ptr %41, ptr %7, align 8, !tbaa !52
  call void @llvm.lifetime.start.p0(i64 8, ptr %8) #3
  %42 = getelementptr inbounds nuw %"class.cv::bioinspired::TransientAreasSegmentationModuleImpl", ptr %13, i32 0, i32 7
  %43 = load ptr, ptr %42, align 8, !tbaa !117
  %44 = call noundef nonnull align 4 dereferenceable(4) ptr @_ZNSt8valarrayIfEixEm(ptr noundef nonnull align 8 dereferenceable(16) %43, i64 noundef 0) #3
  store ptr %44, ptr %8, align 8, !tbaa !52
  call void @llvm.lifetime.start.p0(i64 8, ptr %9) #3
  %45 = getelementptr inbounds nuw %"class.cv::bioinspired::TransientAreasSegmentationModuleImpl", ptr %13, i32 0, i32 4
  %46 = call noundef nonnull align 4 dereferenceable(4) ptr @_ZNSt8valarrayIfEixEm(ptr noundef nonnull align 8 dereferenceable(16) %45, i64 noundef 0) #3
  store ptr %46, ptr %9, align 8, !tbaa !52
  call void @llvm.lifetime.start.p0(i64 8, ptr %10) #3
  %47 = getelementptr inbounds nuw %"class.cv::bioinspired::TransientAreasSegmentationModuleImpl", ptr %13, i32 0, i32 5
  %48 = call noundef nonnull align 1 dereferenceable(1) ptr @_ZNSt8valarrayIbEixEm(ptr noundef nonnull align 8 dereferenceable(16) %47, i64 noundef 0) #3
  store ptr %48, ptr %10, align 8, !tbaa !53
  call void @llvm.lifetime.start.p0(i64 4, ptr %11) #3
  store i32 0, ptr %11, align 4, !tbaa !103
  br label %49

49:                                               ; preds = %88, %3
  %50 = load i32, ptr %11, align 4, !tbaa !103
  %51 = getelementptr inbounds i8, ptr %13, i64 8
  %52 = getelementptr inbounds nuw %"class.cv::bioinspired::BasicRetinaFilter", ptr %51, i32 0, i32 0
  %53 = call noundef i32 @_ZN2cv11bioinspired14TemplateBufferIfE11getNBpixelsEv(ptr noundef nonnull align 8 dereferenceable(64) %52)
  %54 = icmp ult i32 %50, %53
  br i1 %54, label %56, label %55

55:                                               ; preds = %49
  call void @llvm.lifetime.end.p0(i64 4, ptr %11) #3
  br label %99

56:                                               ; preds = %49
  call void @llvm.lifetime.start.p0(i64 4, ptr %12) #3
  %57 = load ptr, ptr %8, align 8, !tbaa !52
  %58 = load float, ptr %57, align 4, !tbaa !23
  %59 = load ptr, ptr %9, align 8, !tbaa !52
  %60 = load float, ptr %59, align 4, !tbaa !23
  %61 = fsub float %58, %60
  store float %61, ptr %12, align 4, !tbaa !23
  %62 = load float, ptr %12, align 4, !tbaa !23
  %63 = fcmp ogt float %62, 0.000000e+00
  br i1 %63, label %64, label %85

64:                                               ; preds = %56
  %65 = load float, ptr %12, align 4, !tbaa !23
  %66 = getelementptr inbounds nuw %"class.cv::bioinspired::TransientAreasSegmentationModuleImpl", ptr %13, i32 0, i32 2
  %67 = getelementptr inbounds nuw %"struct.cv::bioinspired::SegmentationParameters", ptr %66, i32 0, i32 0
  %68 = load float, ptr %67, align 8, !tbaa !69
  %69 = fcmp ogt float %65, %68
  br i1 %69, label %70, label %82

70:                                               ; preds = %64
  %71 = load ptr, ptr %7, align 8, !tbaa !52
  %72 = load float, ptr %71, align 4, !tbaa !23
  %73 = load ptr, ptr %8, align 8, !tbaa !52
  %74 = load float, ptr %73, align 4, !tbaa !23
  %75 = fsub float %72, %74
  %76 = getelementptr inbounds nuw %"class.cv::bioinspired::TransientAreasSegmentationModuleImpl", ptr %13, i32 0, i32 2
  %77 = getelementptr inbounds nuw %"struct.cv::bioinspired::SegmentationParameters", ptr %76, i32 0, i32 0
  %78 = load float, ptr %77, align 8, !tbaa !69
  %79 = fcmp ogt float %75, %78
  %80 = load ptr, ptr %10, align 8, !tbaa !53
  %81 = zext i1 %79 to i8
  store i8 %81, ptr %80, align 1, !tbaa !48
  br label %84

82:                                               ; preds = %64
  %83 = load ptr, ptr %10, align 8, !tbaa !53
  store i8 0, ptr %83, align 1, !tbaa !48
  br label %84

84:                                               ; preds = %82, %70
  br label %87

85:                                               ; preds = %56
  %86 = load ptr, ptr %10, align 8, !tbaa !53
  store i8 0, ptr %86, align 1, !tbaa !48
  br label %87

87:                                               ; preds = %85, %84
  call void @llvm.lifetime.end.p0(i64 4, ptr %12) #3
  br label %88

88:                                               ; preds = %87
  %89 = load i32, ptr %11, align 4, !tbaa !103
  %90 = add i32 %89, 1
  store i32 %90, ptr %11, align 4, !tbaa !103
  %91 = load ptr, ptr %10, align 8, !tbaa !53
  %92 = getelementptr inbounds nuw i8, ptr %91, i32 1
  store ptr %92, ptr %10, align 8, !tbaa !53
  %93 = load ptr, ptr %7, align 8, !tbaa !52
  %94 = getelementptr inbounds nuw float, ptr %93, i32 1
  store ptr %94, ptr %7, align 8, !tbaa !52
  %95 = load ptr, ptr %8, align 8, !tbaa !52
  %96 = getelementptr inbounds nuw float, ptr %95, i32 1
  store ptr %96, ptr %8, align 8, !tbaa !52
  %97 = load ptr, ptr %9, align 8, !tbaa !52
  %98 = getelementptr inbounds nuw float, ptr %97, i32 1
  store ptr %98, ptr %9, align 8, !tbaa !52
  br label %49, !llvm.loop !118

99:                                               ; preds = %55
  call void @llvm.lifetime.end.p0(i64 8, ptr %10) #3
  call void @llvm.lifetime.end.p0(i64 8, ptr %9) #3
  call void @llvm.lifetime.end.p0(i64 8, ptr %8) #3
  call void @llvm.lifetime.end.p0(i64 8, ptr %7) #3
  ret void
}