; Function Attrs: mustprogress uwtable
define hidden void @_ZN2cv11bioinspired36TransientAreasSegmentationModuleImpl4_runERKSt8valarrayIfEi(ptr noundef nonnull align 8 dereferenceable(472) %0, ptr noundef nonnull readonly align 8 captures(none) dereferenceable(16) %1, i32 noundef %2) local_unnamed_addr #3 align 2 {
  %4 = getelementptr inbounds nuw i8, ptr %0, i64 8
  %5 = getelementptr inbounds nuw i8, ptr %0, i64 56
  %6 = load i64, ptr %5, align 8, !tbaa !148
  %7 = trunc i64 %6 to i32
  %8 = mul i32 %2, %7
  %9 = zext i32 %8 to i64
  %10 = getelementptr inbounds nuw i8, ptr %1, i64 8
  %11 = load ptr, ptr %10, align 8, !tbaa !37
  %12 = getelementptr inbounds nuw float, ptr %11, i64 %9
  %13 = getelementptr inbounds nuw i8, ptr %0, i64 256
  %14 = load ptr, ptr %13, align 8, !tbaa !149
  %15 = getelementptr inbounds nuw i8, ptr %14, i64 8
  %16 = load ptr, ptr %15, align 8, !tbaa !37
  %17 = tail call noundef float @_ZN2cv11bioinspired17BasicRetinaFilter31_squaringSpatiotemporalLPfilterEPKfPfj(ptr noundef nonnull align 8 dereferenceable(168) %4, ptr noundef nonnull %12, ptr noundef nonnull %16, i32 noundef 0)
  %18 = load ptr, ptr %13, align 8, !tbaa !149
  %19 = getelementptr inbounds nuw i8, ptr %18, i64 8
  %20 = load ptr, ptr %19, align 8, !tbaa !37
  %21 = getelementptr inbounds nuw i8, ptr %0, i64 264
  %22 = load ptr, ptr %21, align 8, !tbaa !150
  %23 = getelementptr inbounds nuw i8, ptr %22, i64 8
  %24 = load ptr, ptr %23, align 8, !tbaa !37
  tail call void @_ZN2cv11bioinspired17BasicRetinaFilter23_spatiotemporalLPfilterEPKfPfj(ptr noundef nonnull align 8 dereferenceable(168) %4, ptr noundef nonnull %20, ptr noundef nonnull %24, i32 noundef 1)
  %25 = load ptr, ptr %13, align 8, !tbaa !149
  %26 = getelementptr inbounds nuw i8, ptr %25, i64 8
  %27 = load ptr, ptr %26, align 8, !tbaa !37
  %28 = getelementptr inbounds nuw i8, ptr %0, i64 232
  %29 = load ptr, ptr %28, align 8, !tbaa !37
  tail call void @_ZN2cv11bioinspired17BasicRetinaFilter23_spatiotemporalLPfilterEPKfPfj(ptr noundef nonnull align 8 dereferenceable(168) %4, ptr noundef nonnull %27, ptr noundef nonnull %29, i32 noundef 2)
  %30 = load i64, ptr %5, align 8, !tbaa !148
  %31 = trunc i64 %30 to i32
  %.not = icmp eq i32 %31, 0
  br i1 %.not, label %._crit_edge, label %.lr.ph

.lr.ph:                                           ; preds = %3
  %32 = getelementptr inbounds nuw i8, ptr %0, i64 248
  %33 = load ptr, ptr %32, align 8, !tbaa !41
  %34 = load ptr, ptr %28, align 8, !tbaa !37
  %35 = load ptr, ptr %21, align 8, !tbaa !150
  %36 = getelementptr inbounds nuw i8, ptr %35, i64 8
  %37 = load ptr, ptr %36, align 8, !tbaa !37
  %38 = load ptr, ptr %13, align 8, !tbaa !149
  %39 = getelementptr inbounds nuw i8, ptr %38, i64 8
  %40 = load ptr, ptr %39, align 8, !tbaa !37
  %41 = getelementptr inbounds nuw i8, ptr %0, i64 176
  %42 = load float, ptr %41, align 8
  br label %43

._crit_edge:                                      ; preds = %54, %3
  ret void

43:                                               ; preds = %.lr.ph, %54
  %.027 = phi ptr [ %40, %.lr.ph ], [ %57, %54 ]
  %.01726 = phi i32 [ 0, %.lr.ph ], [ %55, %54 ]
  %.01825 = phi ptr [ %33, %.lr.ph ], [ %56, %54 ]
  %.01924 = phi ptr [ %34, %.lr.ph ], [ %59, %54 ]
  %.02023 = phi ptr [ %37, %.lr.ph ], [ %58, %54 ]
  %44 = load float, ptr %.02023, align 4, !tbaa !44
  %45 = load float, ptr %.01924, align 4, !tbaa !44
  %46 = fsub float %44, %45
  %47 = fcmp ogt float %46, 0.000000e+00
  %48 = fcmp ogt float %46, %42
  %or.cond = select i1 %47, i1 %48, i1 false
  br i1 %or.cond, label %49, label %54

49:                                               ; preds = %43
  %50 = load float, ptr %.027, align 4, !tbaa !44
  %51 = fsub float %50, %44
  %52 = fcmp ogt float %51, %42
  %53 = zext i1 %52 to i8
  br label %54

54:                                               ; preds = %43, %49
  %.sink = phi i8 [ %53, %49 ], [ 0, %43 ]
  store i8 %.sink, ptr %.01825, align 1, !tbaa !54
  %55 = add nuw i32 %.01726, 1
  %56 = getelementptr inbounds nuw i8, ptr %.01825, i64 1
  %57 = getelementptr inbounds nuw i8, ptr %.027, i64 4
  %58 = getelementptr inbounds nuw i8, ptr %.02023, i64 4
  %59 = getelementptr inbounds nuw i8, ptr %.01924, i64 4
  %exitcond.not = icmp eq i32 %55, %31
  br i1 %exitcond.not, label %._crit_edge, label %43, !llvm.loop !151
}